; Function Attrs: nounwind uwtable
define void @lv_cache_drop(ptr noundef %0, ptr noundef %1, ptr noundef %2) local_unnamed_addr #0 {
  %.not = icmp eq ptr %0, null
  br i1 %.not, label %.preheader, label %4

.preheader:                                       ; preds = %3, %.preheader
  br label %.preheader

4:                                                ; preds = %3
  %.not8 = icmp eq ptr %1, null
  br i1 %.not8, label %.preheader9, label %5

.preheader9:                                      ; preds = %4, %.preheader9
  br label %.preheader9

5:                                                ; preds = %4
  %6 = getelementptr inbounds nuw i8, ptr %0, i64 48
  %7 = tail call i32 @lv_mutex_lock(ptr noundef nonnull %6) #5
  %8 = load ptr, ptr %0, align 8, !tbaa !8
  %9 = getelementptr inbounds nuw i8, ptr %8, i64 24
  %10 = load ptr, ptr %9, align 8, !tbaa !19
  %11 = tail call ptr %10(ptr noundef nonnull %0, ptr noundef nonnull %1, ptr noundef %2) #5
  %12 = icmp eq ptr %11, null
  br i1 %12, label %cache_drop_internal_no_lock.exit, label %13

13:                                               ; preds = %5
  %14 = tail call i32 @lv_cache_entry_get_ref(ptr noundef nonnull %11) #5
  %15 = icmp eq i32 %14, 0
  br i1 %15, label %16, label %23

16:                                               ; preds = %13
  %17 = load ptr, ptr %0, align 8, !tbaa !8
  %18 = getelementptr inbounds nuw i8, ptr %17, i64 40
  %19 = load ptr, ptr %18, align 8, !tbaa !23
  tail call void %19(ptr noundef nonnull %0, ptr noundef nonnull %11, ptr noundef %2) #5
  %20 = getelementptr inbounds nuw i8, ptr %0, i64 40
  %21 = load ptr, ptr %20, align 8, !tbaa !20
  %22 = tail call ptr @lv_cache_entry_get_data(ptr noundef nonnull %11) #5
  tail call void %21(ptr noundef %22, ptr noundef %2) #5
  tail call void @lv_cache_entry_delete(ptr noundef nonnull %11) #5
  br label %cache_drop_internal_no_lock.exit

23:                                               ; preds = %13
  tail call void @lv_cache_entry_set_invalid(ptr noundef nonnull %11, i1 noundef zeroext true) #5
  %24 = load ptr, ptr %0, align 8, !tbaa !8
  %25 = getelementptr inbounds nuw i8, ptr %24, i64 40
  %26 = load ptr, ptr %25, align 8, !tbaa !23
  tail call void %26(ptr noundef nonnull %0, ptr noundef nonnull %11, ptr noundef %2) #5
  br label %cache_drop_internal_no_lock.exit

cache_drop_internal_no_lock.exit:                 ; preds = %5, %16, %23
  %27 = tail call i32 @lv_mutex_unlock(ptr noundef nonnull %6) #5
  ret void
}